target datalayout = "e-m:e-p270:32:32-p271:32:32-p272:64:64-i64:64-i128:128-f80:128-n8:16:32:64-S128"
target triple = "x86_64-pc-linux-gnu"

%struct.nghttp2_frame_hd = type { i64, i32, i8, i8, i8 }
%struct.nghttp2_push_promise = type { %struct.nghttp2_frame_hd, i64, ptr, i64, i32, i8 }

; Function Attrs: nounwind uwtable
define hidden void @nghttp2_frame_hd_init(ptr noundef %0, i64 noundef %1, i8 noundef zeroext %2, i8 noundef zeroext %3, i32 noundef %4) #0 {
  %6 = alloca ptr, align 8
  %7 = alloca i64, align 8
  %8 = alloca i8, align 1
  %9 = alloca i8, align 1
  %10 = alloca i32, align 4
  store ptr %0, ptr %6, align 8, !tbaa !8
  store i64 %1, ptr %7, align 8, !tbaa !18
  store i8 %2, ptr %8, align 1, !tbaa !14
  store i8 %3, ptr %9, align 1, !tbaa !14
  store i32 %4, ptr %10, align 4, !tbaa !19
  %11 = load i64, ptr %7, align 8, !tbaa !18
  %12 = load ptr, ptr %6, align 8, !tbaa !8
  %13 = getelementptr inbounds nuw %struct.nghttp2_frame_hd, ptr %12, i32 0, i32 0
  store i64 %11, ptr %13, align 8, !tbaa !9
  %14 = load i8, ptr %8, align 1, !tbaa !14
  %15 = load ptr, ptr %6, align 8, !tbaa !8
  %16 = getelementptr inbounds nuw %struct.nghttp2_frame_hd, ptr %15, i32 0, i32 2
  store i8 %14, ptr %16, align 4, !tbaa !13
  %17 = load i8, ptr %9, align 1, !tbaa !14
  %18 = load ptr, ptr %6, align 8, !tbaa !8
  %19 = getelementptr inbounds nuw %struct.nghttp2_frame_hd, ptr %18, i32 0, i32 3
  store i8 %17, ptr %19, align 1, !tbaa !15
  %20 = load i32, ptr %10, align 4, !tbaa !19
  %21 = load ptr, ptr %6, align 8, !tbaa !8
  %22 = getelementptr inbounds nuw %struct.nghttp2_frame_hd, ptr %21, i32 0, i32 1
  store i32 %20, ptr %22, align 8, !tbaa !16
  %23 = load ptr, ptr %6, align 8, !tbaa !8
  %24 = getelementptr inbounds nuw %struct.nghttp2_frame_hd, ptr %23, i32 0, i32 4
  store i8 0, ptr %24, align 2, !tbaa !17
  ret void
}

; Function Attrs: nounwind uwtable
define hidden void @nghttp2_frame_push_promise_init(ptr noundef %0, i8 noundef zeroext %1, i32 noundef %2, i32 noundef %3, ptr noundef %4, i64 noundef %5) #0 {
  %7 = alloca ptr, align 8
  %8 = alloca i8, align 1
  %9 = alloca i32, align 4
  %10 = alloca i32, align 4
  %11 = alloca ptr, align 8
  %12 = alloca i64, align 8
  store ptr %0, ptr %7, align 8, !tbaa !8
  store i8 %1, ptr %8, align 1, !tbaa !14
  store i32 %2, ptr %9, align 4, !tbaa !19
  store i32 %3, ptr %10, align 4, !tbaa !19
  store ptr %4, ptr %11, align 8, !tbaa !8
  store i64 %5, ptr %12, align 8, !tbaa !18
  %13 = load ptr, ptr %7, align 8, !tbaa !8
  %14 = getelementptr inbounds nuw %struct.nghttp2_push_promise, ptr %13, i32 0, i32 0
  %15 = load i8, ptr %8, align 1, !tbaa !14
  %16 = load i32, ptr %9, align 4, !tbaa !19
  call void @nghttp2_frame_hd_init(ptr noundef %14, i64 noundef 0, i8 noundef zeroext 5, i8 noundef zeroext %15, i32 noundef %16)
  %17 = load ptr, ptr %7, align 8, !tbaa !8
  %18 = getelementptr inbounds nuw %struct.nghttp2_push_promise, ptr %17, i32 0, i32 1
  store i64 0, ptr %18, align 8, !tbaa !32
  %19 = load ptr, ptr %11, align 8, !tbaa !8
  %20 = load ptr, ptr %7, align 8, !tbaa !8
  %21 = getelementptr inbounds nuw %struct.nghttp2_push_promise, ptr %20, i32 0, i32 2
  store ptr %19, ptr %21, align 8, !tbaa !34
  %22 = load i64, ptr %12, align 8, !tbaa !18
  %23 = load ptr, ptr %7, align 8, !tbaa !8
  %24 = getelementptr inbounds nuw %struct.nghttp2_push_promise, ptr %23, i32 0, i32 3
  store i64 %22, ptr %24, align 8, !tbaa !35
  %25 = load i32, ptr %10, align 4, !tbaa !19
  %26 = load ptr, ptr %7, align 8, !tbaa !8
  %27 = getelementptr inbounds nuw %struct.nghttp2_push_promise, ptr %26, i32 0, i32 4
  store i32 %25, ptr %27, align 8, !tbaa !36
  %28 = load ptr, ptr %7, align 8, !tbaa !8
  %29 = getelementptr inbounds nuw %struct.nghttp2_push_promise, ptr %28, i32 0, i32 5
  store i8 0, ptr %29, align 4, !tbaa !37
  ret void
}