; Function Attrs: mustprogress nofree norecurse nosync nounwind willreturn memory(argmem: write) uwtable
define hidden void @nghttp2_frame_push_promise_init(ptr noundef writeonly captures(none) initializes((0, 15), (16, 45)) %0, i8 noundef zeroext %1, i32 noundef %2, i32 noundef %3, ptr noundef %4, i64 noundef %5) local_unnamed_addr #2 {
  store i64 0, ptr %0, align 8, !tbaa !3
  %7 = getelementptr inbounds nuw i8, ptr %0, i64 12
  store i8 5, ptr %7, align 4, !tbaa !9
  %8 = getelementptr inbounds nuw i8, ptr %0, i64 13
  store i8 %1, ptr %8, align 1, !tbaa !11
  %9 = getelementptr inbounds nuw i8, ptr %0, i64 8
  store i32 %2, ptr %9, align 8, !tbaa !12
  %10 = getelementptr inbounds nuw i8, ptr %0, i64 14
  store i8 0, ptr %10, align 2, !tbaa !13
  %11 = getelementptr inbounds nuw i8, ptr %0, i64 16
  store i64 0, ptr %11, align 8, !tbaa !28
  %12 = getelementptr inbounds nuw i8, ptr %0, i64 24
  store ptr %4, ptr %12, align 8, !tbaa !30
  %13 = getelementptr inbounds nuw i8, ptr %0, i64 32
  store i64 %5, ptr %13, align 8, !tbaa !31
  %14 = getelementptr inbounds nuw i8, ptr %0, i64 40
  store i32 %3, ptr %14, align 8, !tbaa !32
  %15 = getelementptr inbounds nuw i8, ptr %0, i64 44
  store i8 0, ptr %15, align 4, !tbaa !33
  ret void
}